ARM GAS  C:\Users\julei\AppData\Local\Temp\cc3Ta1MN.s 			page 1


   1              		.syntax unified
   2              		.cpu cortex-m3
   3              		.fpu softvfp
   4              		.eabi_attribute 20, 1
   5              		.eabi_attribute 21, 1
   6              		.eabi_attribute 23, 3
   7              		.eabi_attribute 24, 1
   8              		.eabi_attribute 25, 1
   9              		.eabi_attribute 26, 1
  10              		.eabi_attribute 30, 1
  11              		.eabi_attribute 34, 1
  12              		.eabi_attribute 18, 4
  13              		.thumb
  14              		.syntax unified
  15              		.file	"main.c"
  16              		.text
  17              	.Ltext0:
  18              		.cfi_sections	.debug_frame
  19              		.section	.text.main,"ax",%progbits
  20              		.align	2
  21              		.global	main
  22              		.thumb
  23              		.thumb_func
  24              		.type	main, %function
  25              	main:
  26              	.LFB64:
  27              		.file 1 "main.c"
   1:main.c        **** /* ========================================
   2:main.c        ****  *
   3:main.c        ****  * Copyright YOUR COMPANY, THE YEAR
   4:main.c        ****  * All Rights Reserved
   5:main.c        ****  * UNPUBLISHED, LICENSED SOFTWARE.
   6:main.c        ****  *
   7:main.c        ****  * CONFIDENTIAL AND PROPRIETARY INFORMATION
   8:main.c        ****  * WHICH IS THE PROPERTY OF your company.
   9:main.c        ****  *
  10:main.c        ****  * ========================================
  11:main.c        **** */
  12:main.c        **** #include "project.h"
  13:main.c        **** #include <stdio.h>
  14:main.c        **** 
  15:main.c        **** #define BUFFER_SIZE 256
  16:main.c        **** 
  17:main.c        **** uint8_t buffer[BUFFER_SIZE];
  18:main.c        **** uint16_t bufferIndex = 0;
  19:main.c        **** 
  20:main.c        **** int main(void)
  21:main.c        **** {
  28              		.loc 1 21 0
  29              		.cfi_startproc
  30              		@ args = 0, pretend = 0, frame = 24
  31              		@ frame_needed = 0, uses_anonymous_args = 0
  32 0000 30B5     		push	{r4, r5, lr}
  33              		.cfi_def_cfa_offset 12
  34              		.cfi_offset 4, -12
  35              		.cfi_offset 5, -8
  36              		.cfi_offset 14, -4
ARM GAS  C:\Users\julei\AppData\Local\Temp\cc3Ta1MN.s 			page 2


  37 0002 87B0     		sub	sp, sp, #28
  38              		.cfi_def_cfa_offset 40
  22:main.c        ****     CyGlobalIntEnable; /* Enable global interrupts. */
  39              		.loc 1 22 0
  40              		.syntax unified
  41              	@ 22 "main.c" 1
  42 0004 62B6     		CPSIE   i
  43              	@ 0 "" 2
  23:main.c        **** 
  24:main.c        ****     /* Start the I2C slave component */
  25:main.c        ****     I2CS_Start();
  44              		.loc 1 25 0
  45              		.thumb
  46              		.syntax unified
  47 0006 FFF7FEFF 		bl	I2CS_Start
  48              	.LVL0:
  49              	.L4:
  26:main.c        **** 
  27:main.c        ****     for (;;)
  28:main.c        ****     {
  29:main.c        ****         /* Check if there is data available to read from the I2C bus */
  30:main.c        ****         if (I2CS_SlaveStatus() & I2CS_SSTAT_RD_CMPLT)
  50              		.loc 1 30 0
  51 000a FFF7FEFF 		bl	I2CS_SlaveStatus
  52              	.LVL1:
  53 000e 10F0010F 		tst	r0, #1
  54 0012 1CD0     		beq	.L2
  55              	.LBB2:
  31:main.c        ****         {
  32:main.c        ****             /* Read the data from the I2C bus */
  33:main.c        ****             uint8_t len = I2CS_SlaveGetReadBufSize();
  56              		.loc 1 33 0
  57 0014 FFF7FEFF 		bl	I2CS_SlaveGetReadBufSize
  58              	.LVL2:
  59 0018 0546     		mov	r5, r0
  60              	.LVL3:
  34:main.c        ****             I2CS_SlaveClearReadBuf();
  61              		.loc 1 34 0
  62 001a FFF7FEFF 		bl	I2CS_SlaveClearReadBuf
  63              	.LVL4:
  35:main.c        ****             I2CS_SlaveInitReadBuf(buffer, len);
  64              		.loc 1 35 0
  65 001e 144C     		ldr	r4, .L6
  66 0020 2946     		mov	r1, r5
  67 0022 2046     		mov	r0, r4
  68 0024 FFF7FEFF 		bl	I2CS_SlaveInitReadBuf
  69              	.LVL5:
  36:main.c        **** 
  37:main.c        ****             /* Process the data */
  38:main.c        ****             printf("Received data: %s\n", buffer);
  70              		.loc 1 38 0
  71 0028 2146     		mov	r1, r4
  72 002a 1248     		ldr	r0, .L6+4
  73 002c FFF7FEFF 		bl	printf
  74              	.LVL6:
  39:main.c        **** 
  40:main.c        ****             /* Respond to the data */
ARM GAS  C:\Users\julei\AppData\Local\Temp\cc3Ta1MN.s 			page 3


  41:main.c        ****             char response[] = "Hello, Raspberry Pi!";
  75              		.loc 1 41 0
  76 0030 6C46     		mov	r4, sp
  77 0032 114D     		ldr	r5, .L6+8
  78              	.LVL7:
  79 0034 0FCD     		ldmia	r5!, {r0, r1, r2, r3}
  80 0036 0FC4     		stmia	r4!, {r0, r1, r2, r3}
  81 0038 95E80300 		ldmia	r5, {r0, r1}
  82 003c 44F8040B 		str	r0, [r4], #4
  83 0040 2170     		strb	r1, [r4]
  42:main.c        ****             I2CS_SlaveClearWriteBuf();
  84              		.loc 1 42 0
  85 0042 FFF7FEFF 		bl	I2CS_SlaveClearWriteBuf
  86              	.LVL8:
  43:main.c        ****             I2CS_SlaveInitWriteBuf(response, sizeof(response));
  87              		.loc 1 43 0
  88 0046 1521     		movs	r1, #21
  89 0048 6846     		mov	r0, sp
  90 004a FFF7FEFF 		bl	I2CS_SlaveInitWriteBuf
  91              	.LVL9:
  92              	.L2:
  93              	.LBE2:
  44:main.c        ****         }
  45:main.c        **** 
  46:main.c        ****         /* Check if there is space available to write to the I2C bus */
  47:main.c        ****         if (I2CS_SlaveStatus() & I2CS_SSTAT_WR_CMPLT)
  94              		.loc 1 47 0
  95 004e FFF7FEFF 		bl	I2CS_SlaveStatus
  96              	.LVL10:
  97 0052 10F0100F 		tst	r0, #16
  98 0056 07D0     		beq	.L3
  99              	.LBB3:
  48:main.c        ****         {
  49:main.c        ****             /* Write data to the I2C bus */
  50:main.c        ****             uint8_t len = I2CS_SlaveGetWriteBufSize();
 100              		.loc 1 50 0
 101 0058 FFF7FEFF 		bl	I2CS_SlaveGetWriteBufSize
 102              	.LVL11:
  51:main.c        ****             I2CS_SlaveClearWriteBuf();
 103              		.loc 1 51 0
 104 005c FFF7FEFF 		bl	I2CS_SlaveClearWriteBuf
 105              	.LVL12:
  52:main.c        ****             printf("Writing data: %s\n", buffer);
 106              		.loc 1 52 0
 107 0060 0349     		ldr	r1, .L6
 108 0062 0648     		ldr	r0, .L6+12
 109 0064 FFF7FEFF 		bl	printf
 110              	.LVL13:
 111              	.L3:
 112              	.LBE3:
  53:main.c        ****         }
  54:main.c        **** 
  55:main.c        ****         /* Delay to prevent overloading the processor */
  56:main.c        ****         CyDelay(1);
 113              		.loc 1 56 0
 114 0068 0120     		movs	r0, #1
 115 006a FFF7FEFF 		bl	CyDelay
ARM GAS  C:\Users\julei\AppData\Local\Temp\cc3Ta1MN.s 			page 4


 116              	.LVL14:
  57:main.c        ****     }
 117              		.loc 1 57 0
 118 006e CCE7     		b	.L4
 119              	.L7:
 120              		.align	2
 121              	.L6:
 122 0070 00000000 		.word	buffer
 123 0074 00000000 		.word	.LC0
 124 0078 28000000 		.word	.LC1
 125 007c 14000000 		.word	.LC2
 126              		.cfi_endproc
 127              	.LFE64:
 128              		.size	main, .-main
 129              		.global	bufferIndex
 130              		.comm	buffer,256,4
 131              		.section	.rodata.str1.4,"aMS",%progbits,1
 132              		.align	2
 133              	.LC0:
 134 0000 52656365 		.ascii	"Received data: %s\012\000"
 134      69766564 
 134      20646174 
 134      613A2025 
 134      730A00
 135 0013 00       		.space	1
 136              	.LC2:
 137 0014 57726974 		.ascii	"Writing data: %s\012\000"
 137      696E6720 
 137      64617461 
 137      3A202573 
 137      0A00
 138 0026 0000     		.space	2
 139              	.LC1:
 140 0028 48656C6C 		.ascii	"Hello, Raspberry Pi!\000"
 140      6F2C2052 
 140      61737062 
 140      65727279 
 140      20506921 
 141              		.bss
 142              		.align	1
 143              		.type	bufferIndex, %object
 144              		.size	bufferIndex, 2
 145              	bufferIndex:
 146 0000 0000     		.space	2
 147              		.text
 148              	.Letext0:
 149              		.file 2 "c:\\program files (x86)\\cypress\\psoc creator\\4.4\\psoc creator\\import\\gnu\\arm\\5.4.
 150              		.file 3 "c:\\program files (x86)\\cypress\\psoc creator\\4.4\\psoc creator\\import\\gnu\\arm\\5.4.
 151              		.file 4 "Generated_Source\\PSoC5/core_cm3.h"
 152              		.file 5 "Generated_Source\\PSoC5/I2CS.h"
 153              		.file 6 "c:\\program files (x86)\\cypress\\psoc creator\\4.4\\psoc creator\\import\\gnu\\arm\\5.4.
 154              		.file 7 "Generated_Source\\PSoC5/CyLib.h"